target datalayout = "e-m:e-p270:32:32-p271:32:32-p272:64:64-i64:64-i128:128-f80:128-n8:16:32:64-S128"
target triple = "x86_64-pc-linux-gnu"

%class.anon.149 = type { ptr }
%struct.ggml_type_traits = type { ptr, i64, i64, i64, i8, ptr, ptr }
%"struct.std::thread::_State_impl" = type { %"struct.std::thread::_State", %"struct.std::thread::_Invoker" }
%"struct.std::thread::_State" = type { ptr }
%"struct.std::thread::_Invoker" = type { %"class.std::tuple.160" }
%"class.std::tuple.160" = type { %"struct.std::_Tuple_impl.161" }
%"struct.std::_Tuple_impl.161" = type { %"struct.std::_Tuple_impl.base", %"struct.std::_Head_base.170" }
%"struct.std::_Tuple_impl.base" = type <{ %"struct.std::_Tuple_impl.163", %"struct.std::_Head_base.169" }>
%"struct.std::_Tuple_impl.163" = type { %"struct.std::_Tuple_impl.164", %"struct.std::_Head_base.168" }
%"struct.std::_Tuple_impl.164" = type { %"struct.std::_Tuple_impl.165", %"struct.std::_Head_base.167" }
%"struct.std::_Tuple_impl.165" = type { %"struct.std::_Head_base.166" }
%"struct.std::_Head_base.166" = type { i64 }
%"struct.std::_Head_base.167" = type { ptr }
%"struct.std::_Head_base.168" = type { ptr }
%"struct.std::_Head_base.169" = type { i32 }
%"struct.std::_Head_base.170" = type { %class.anon.149 }

; Function Attrs: mustprogress nounwind uwtable
define linkonce_odr noundef nonnull align 8 dereferenceable(8) ptr @_ZNSt10_Head_baseILm4EmLb0EE7_M_headERS0_(ptr noundef nonnull align 8 dereferenceable(8) %0) #0 comdat align 2 {
  %2 = alloca ptr, align 8
  store ptr %0, ptr %2, align 8, !tbaa !644
  %3 = load ptr, ptr %2, align 8, !tbaa !644
  %4 = getelementptr inbounds nuw %"struct.std::_Head_base.166", ptr %3, i32 0, i32 0
  ret ptr %4
}

; Function Attrs: mustprogress nounwind uwtable
define linkonce_odr noundef nonnull align 8 dereferenceable(8) ptr @_ZNSt10_Head_baseILm3EPfLb0EE7_M_headERS1_(ptr noundef nonnull align 8 dereferenceable(8) %0) #0 comdat align 2 {
  %2 = alloca ptr, align 8
  store ptr %0, ptr %2, align 8, !tbaa !640
  %3 = load ptr, ptr %2, align 8, !tbaa !640
  %4 = getelementptr inbounds nuw %"struct.std::_Head_base.167", ptr %3, i32 0, i32 0
  ret ptr %4
}

; Function Attrs: mustprogress nounwind uwtable
define linkonce_odr noundef nonnull align 8 dereferenceable(8) ptr @_ZNSt10_Head_baseILm2EPhLb0EE7_M_headERS1_(ptr noundef nonnull align 8 dereferenceable(8) %0) #0 comdat align 2 {
  %2 = alloca ptr, align 8
  store ptr %0, ptr %2, align 8, !tbaa !634
  %3 = load ptr, ptr %2, align 8, !tbaa !634
  %4 = getelementptr inbounds nuw %"struct.std::_Head_base.168", ptr %3, i32 0, i32 0
  ret ptr %4
}

; Function Attrs: mustprogress nounwind uwtable
define linkonce_odr noundef nonnull align 4 dereferenceable(4) ptr @_ZNSt10_Head_baseILm1E9ggml_typeLb0EE7_M_headERS1_(ptr noundef nonnull align 4 dereferenceable(4) %0) #0 comdat align 2 {
  %2 = alloca ptr, align 8
  store ptr %0, ptr %2, align 8, !tbaa !628
  %3 = load ptr, ptr %2, align 8, !tbaa !628
  %4 = getelementptr inbounds nuw %"struct.std::_Head_base.169", ptr %3, i32 0, i32 0
  ret ptr %4
}

; Function Attrs: mustprogress nounwind uwtable
define internal noundef nonnull align 8 dereferenceable(8) ptr @"_ZNSt10_Head_baseILm0EZL28llama_tensor_dequantize_implP11ggml_tensorRSt6vectorI7no_initIfESaIS4_EERS2_ISt6threadSaIS8_EEmiE3$_0Lb0EE7_M_headERSD_"(ptr noundef nonnull align 8 dereferenceable(8) %0) #0 align 2 {
  %2 = alloca ptr, align 8
  store ptr %0, ptr %2, align 8, !tbaa !623
  %3 = load ptr, ptr %2, align 8, !tbaa !623
  %4 = getelementptr inbounds nuw %"struct.std::_Head_base.170", ptr %3, i32 0, i32 0
  ret ptr %4
}

; Function Attrs: inlinehint mustprogress uwtable
define internal void @"_ZZL28llama_tensor_dequantize_implP11ggml_tensorRSt6vectorI7no_initIfESaIS3_EERS1_ISt6threadSaIS7_EEmiENK3$_0clE9ggml_typePhPfi"(ptr noundef nonnull align 8 dereferenceable(8) %0, i32 noundef %1, ptr noundef %2, ptr noundef %3, i32 noundef %4) #9 align 2 {
  %6 = alloca ptr, align 8
  %7 = alloca i32, align 4
  %8 = alloca ptr, align 8
  %9 = alloca ptr, align 8
  %10 = alloca i32, align 4
  store ptr %0, ptr %6, align 8, !tbaa !196
  store i32 %1, ptr %7, align 4, !tbaa !23
  store ptr %2, ptr %8, align 8, !tbaa !3
  store ptr %3, ptr %9, align 8, !tbaa !197
  store i32 %4, ptr %10, align 4, !tbaa !25
  %11 = load ptr, ptr %6, align 8
  %12 = load i32, ptr %7, align 4, !tbaa !23
  %13 = icmp eq i32 %12, 1
  br i1 %13, label %14, label %19

14:                                               ; preds = %5
  %15 = load ptr, ptr %8, align 8, !tbaa !3
  %16 = load ptr, ptr %9, align 8, !tbaa !197
  %17 = load i32, ptr %10, align 4, !tbaa !25
  %18 = sext i32 %17 to i64
  call void @ggml_fp16_to_fp32_row(ptr noundef %15, ptr noundef %16, i64 noundef %18)
  br label %37

19:                                               ; preds = %5
  %20 = load i32, ptr %7, align 4, !tbaa !23
  %21 = icmp eq i32 %20, 30
  br i1 %21, label %22, label %27

22:                                               ; preds = %19
  %23 = load ptr, ptr %8, align 8, !tbaa !3
  %24 = load ptr, ptr %9, align 8, !tbaa !197
  %25 = load i32, ptr %10, align 4, !tbaa !25
  %26 = sext i32 %25 to i64
  call void @ggml_bf16_to_fp32_row(ptr noundef %23, ptr noundef %24, i64 noundef %26)
  br label %36

27:                                               ; preds = %19
  %28 = getelementptr inbounds nuw %class.anon.149, ptr %11, i32 0, i32 0
  %29 = load ptr, ptr %28, align 8, !tbaa !320
  %30 = getelementptr inbounds nuw %struct.ggml_type_traits, ptr %29, i32 0, i32 5
  %31 = load ptr, ptr %30, align 8, !tbaa !318
  %32 = load ptr, ptr %8, align 8, !tbaa !3
  %33 = load ptr, ptr %9, align 8, !tbaa !197
  %34 = load i32, ptr %10, align 4, !tbaa !25
  %35 = sext i32 %34 to i64
  call void %31(ptr noundef %32, ptr noundef %33, i64 noundef %35)
  br label %36

36:                                               ; preds = %27, %22
  br label %37

37:                                               ; preds = %36, %14
  ret void
}

; Function Attrs: mustprogress nounwind uwtable
define linkonce_odr noundef nonnull align 8 dereferenceable(8) ptr @_ZNSt11_Tuple_implILm4EJmEE7_M_headERS0_(ptr noundef nonnull align 8 dereferenceable(8) %0) #0 comdat align 2 {
  %2 = alloca ptr, align 8
  store ptr %0, ptr %2, align 8, !tbaa !638
  %3 = load ptr, ptr %2, align 8, !tbaa !638
  %4 = call noundef nonnull align 8 dereferenceable(8) ptr @_ZNSt10_Head_baseILm4EmLb0EE7_M_headERS0_(ptr noundef nonnull align 8 dereferenceable(8) %3) #20
  ret ptr %4
}

; Function Attrs: mustprogress nounwind uwtable
define linkonce_odr noundef nonnull align 8 dereferenceable(8) ptr @_ZNSt11_Tuple_implILm3EJPfmEE7_M_headERS1_(ptr noundef nonnull align 8 dereferenceable(16) %0) #0 comdat align 2 {
  %2 = alloca ptr, align 8
  store ptr %0, ptr %2, align 8, !tbaa !632
  %3 = load ptr, ptr %2, align 8, !tbaa !632
  %4 = getelementptr inbounds i8, ptr %3, i64 8
  %5 = call noundef nonnull align 8 dereferenceable(8) ptr @_ZNSt10_Head_baseILm3EPfLb0EE7_M_headERS1_(ptr noundef nonnull align 8 dereferenceable(8) %4) #20
  ret ptr %5
}

; Function Attrs: mustprogress nounwind uwtable
define linkonce_odr noundef nonnull align 8 dereferenceable(8) ptr @_ZNSt11_Tuple_implILm2EJPhPfmEE7_M_headERS2_(ptr noundef nonnull align 8 dereferenceable(24) %0) #0 comdat align 2 {
  %2 = alloca ptr, align 8
  store ptr %0, ptr %2, align 8, !tbaa !626
  %3 = load ptr, ptr %2, align 8, !tbaa !626
  %4 = getelementptr inbounds i8, ptr %3, i64 16
  %5 = call noundef nonnull align 8 dereferenceable(8) ptr @_ZNSt10_Head_baseILm2EPhLb0EE7_M_headERS1_(ptr noundef nonnull align 8 dereferenceable(8) %4) #20
  ret ptr %5
}

; Function Attrs: mustprogress nounwind uwtable
define linkonce_odr noundef nonnull align 4 dereferenceable(4) ptr @_ZNSt11_Tuple_implILm1EJ9ggml_typePhPfmEE7_M_headERS3_(ptr noundef nonnull align 8 dereferenceable(28) %0) #0 comdat align 2 {
  %2 = alloca ptr, align 8
  store ptr %0, ptr %2, align 8, !tbaa !621
  %3 = load ptr, ptr %2, align 8, !tbaa !621
  %4 = getelementptr inbounds i8, ptr %3, i64 24
  %5 = call noundef nonnull align 4 dereferenceable(4) ptr @_ZNSt10_Head_baseILm1E9ggml_typeLb0EE7_M_headERS1_(ptr noundef nonnull align 4 dereferenceable(4) %4) #20
  ret ptr %5
}

; Function Attrs: mustprogress nounwind uwtable
define internal noundef nonnull align 8 dereferenceable(8) ptr @"_ZNSt11_Tuple_implILm0EJZL28llama_tensor_dequantize_implP11ggml_tensorRSt6vectorI7no_initIfESaIS4_EERS2_ISt6threadSaIS8_EEmiE3$_09ggml_typePhPfmEE7_M_headERSG_"(ptr noundef nonnull align 8 dereferenceable(40) %0) #0 align 2 {
  %2 = alloca ptr, align 8
  store ptr %0, ptr %2, align 8, !tbaa !619
  %3 = load ptr, ptr %2, align 8, !tbaa !619
  %4 = getelementptr inbounds i8, ptr %3, i64 32
  %5 = call noundef nonnull align 8 dereferenceable(8) ptr @"_ZNSt10_Head_baseILm0EZL28llama_tensor_dequantize_implP11ggml_tensorRSt6vectorI7no_initIfESaIS4_EERS2_ISt6threadSaIS8_EEmiE3$_0Lb0EE7_M_headERSD_"(ptr noundef nonnull align 8 dereferenceable(8) %4) #20
  ret ptr %5
}

; Function Attrs: mustprogress uwtable
define internal void @"_ZSt13__invoke_implIvZL28llama_tensor_dequantize_implP11ggml_tensorRSt6vectorI7no_initIfESaIS4_EERS2_ISt6threadSaIS8_EEmiE3$_0J9ggml_typePhPfmEET_St14__invoke_otherOT0_DpOT1_"(ptr noundef nonnull align 8 dereferenceable(8) %0, ptr noundef nonnull align 4 dereferenceable(4) %1, ptr noundef nonnull align 8 dereferenceable(8) %2, ptr noundef nonnull align 8 dereferenceable(8) %3, ptr noundef nonnull align 8 dereferenceable(8) %4) #2 {
  %6 = alloca ptr, align 8
  %7 = alloca ptr, align 8
  %8 = alloca ptr, align 8
  %9 = alloca ptr, align 8
  %10 = alloca ptr, align 8
  store ptr %0, ptr %6, align 8, !tbaa !196
  store ptr %1, ptr %7, align 8, !tbaa !196
  store ptr %2, ptr %8, align 8, !tbaa !532
  store ptr %3, ptr %9, align 8, !tbaa !371
  store ptr %4, ptr %10, align 8, !tbaa !326
  %11 = load ptr, ptr %6, align 8, !tbaa !196
  %12 = load ptr, ptr %7, align 8, !tbaa !196
  %13 = load i32, ptr %12, align 4, !tbaa !23
  %14 = load ptr, ptr %8, align 8, !tbaa !532
  %15 = load ptr, ptr %14, align 8, !tbaa !3
  %16 = load ptr, ptr %9, align 8, !tbaa !371
  %17 = load ptr, ptr %16, align 8, !tbaa !197
  %18 = load ptr, ptr %10, align 8, !tbaa !326
  %19 = load i64, ptr %18, align 8, !tbaa !98
  %20 = trunc i64 %19 to i32
  call void @"_ZZL28llama_tensor_dequantize_implP11ggml_tensorRSt6vectorI7no_initIfESaIS3_EERS1_ISt6threadSaIS7_EEmiENK3$_0clE9ggml_typePhPfi"(ptr noundef nonnull align 8 dereferenceable(8) %11, i32 noundef %13, ptr noundef %15, ptr noundef %17, i32 noundef %20)
  ret void
}

; Function Attrs: mustprogress nounwind uwtable
define linkonce_odr noundef nonnull align 8 dereferenceable(8) ptr @_ZSt12__get_helperILm4EmJEERT0_RSt11_Tuple_implIXT_EJS0_DpT1_EE(ptr noundef nonnull align 8 dereferenceable(8) %0) #0 comdat {
  %2 = alloca ptr, align 8
  store ptr %0, ptr %2, align 8, !tbaa !638
  %3 = load ptr, ptr %2, align 8, !tbaa !638
  %4 = call noundef nonnull align 8 dereferenceable(8) ptr @_ZNSt11_Tuple_implILm4EJmEE7_M_headERS0_(ptr noundef nonnull align 8 dereferenceable(8) %3) #20
  ret ptr %4
}

; Function Attrs: mustprogress nounwind uwtable
define linkonce_odr noundef nonnull align 8 dereferenceable(8) ptr @_ZSt12__get_helperILm3EPfJmEERT0_RSt11_Tuple_implIXT_EJS1_DpT1_EE(ptr noundef nonnull align 8 dereferenceable(16) %0) #0 comdat {
  %2 = alloca ptr, align 8
  store ptr %0, ptr %2, align 8, !tbaa !632
  %3 = load ptr, ptr %2, align 8, !tbaa !632
  %4 = call noundef nonnull align 8 dereferenceable(8) ptr @_ZNSt11_Tuple_implILm3EJPfmEE7_M_headERS1_(ptr noundef nonnull align 8 dereferenceable(16) %3) #20
  ret ptr %4
}

; Function Attrs: mustprogress nounwind uwtable
define linkonce_odr noundef nonnull align 8 dereferenceable(8) ptr @_ZSt12__get_helperILm2EPhJPfmEERT0_RSt11_Tuple_implIXT_EJS2_DpT1_EE(ptr noundef nonnull align 8 dereferenceable(24) %0) #0 comdat {
  %2 = alloca ptr, align 8
  store ptr %0, ptr %2, align 8, !tbaa !626
  %3 = load ptr, ptr %2, align 8, !tbaa !626
  %4 = call noundef nonnull align 8 dereferenceable(8) ptr @_ZNSt11_Tuple_implILm2EJPhPfmEE7_M_headERS2_(ptr noundef nonnull align 8 dereferenceable(24) %3) #20
  ret ptr %4
}

; Function Attrs: mustprogress nounwind uwtable
define linkonce_odr noundef nonnull align 4 dereferenceable(4) ptr @_ZSt12__get_helperILm1E9ggml_typeJPhPfmEERT0_RSt11_Tuple_implIXT_EJS3_DpT1_EE(ptr noundef nonnull align 8 dereferenceable(28) %0) #0 comdat {
  %2 = alloca ptr, align 8
  store ptr %0, ptr %2, align 8, !tbaa !621
  %3 = load ptr, ptr %2, align 8, !tbaa !621
  %4 = call noundef nonnull align 4 dereferenceable(4) ptr @_ZNSt11_Tuple_implILm1EJ9ggml_typePhPfmEE7_M_headERS3_(ptr noundef nonnull align 8 dereferenceable(28) %3) #20
  ret ptr %4
}

; Function Attrs: mustprogress nounwind uwtable
define internal noundef nonnull align 8 dereferenceable(8) ptr @"_ZSt12__get_helperILm0EZL28llama_tensor_dequantize_implP11ggml_tensorRSt6vectorI7no_initIfESaIS4_EERS2_ISt6threadSaIS8_EEmiE3$_0J9ggml_typePhPfmEERT0_RSt11_Tuple_implIXT_EJSG_DpT1_EE"(ptr noundef nonnull align 8 dereferenceable(40) %0) #0 {
  %2 = alloca ptr, align 8
  store ptr %0, ptr %2, align 8, !tbaa !619
  %3 = load ptr, ptr %2, align 8, !tbaa !619
  %4 = call noundef nonnull align 8 dereferenceable(8) ptr @"_ZNSt11_Tuple_implILm0EJZL28llama_tensor_dequantize_implP11ggml_tensorRSt6vectorI7no_initIfESaIS4_EERS2_ISt6threadSaIS8_EEmiE3$_09ggml_typePhPfmEE7_M_headERSG_"(ptr noundef nonnull align 8 dereferenceable(40) %3) #20
  ret ptr %4
}

; Function Attrs: mustprogress uwtable
define internal void @"_ZSt8__invokeIZL28llama_tensor_dequantize_implP11ggml_tensorRSt6vectorI7no_initIfESaIS4_EERS2_ISt6threadSaIS8_EEmiE3$_0J9ggml_typePhPfmEENSt15__invoke_resultIT_JDpT0_EE4typeEOSH_DpOSI_"(ptr noundef nonnull align 8 dereferenceable(8) %0, ptr noundef nonnull align 4 dereferenceable(4) %1, ptr noundef nonnull align 8 dereferenceable(8) %2, ptr noundef nonnull align 8 dereferenceable(8) %3, ptr noundef nonnull align 8 dereferenceable(8) %4) #2 {
  %6 = alloca ptr, align 8
  %7 = alloca ptr, align 8
  %8 = alloca ptr, align 8
  %9 = alloca ptr, align 8
  %10 = alloca ptr, align 8
  store ptr %0, ptr %6, align 8, !tbaa !196
  store ptr %1, ptr %7, align 8, !tbaa !196
  store ptr %2, ptr %8, align 8, !tbaa !532
  store ptr %3, ptr %9, align 8, !tbaa !371
  store ptr %4, ptr %10, align 8, !tbaa !326
  %11 = load ptr, ptr %6, align 8, !tbaa !196
  %12 = load ptr, ptr %7, align 8, !tbaa !196
  %13 = load ptr, ptr %8, align 8, !tbaa !532
  %14 = load ptr, ptr %9, align 8, !tbaa !371
  %15 = load ptr, ptr %10, align 8, !tbaa !326
  call void @"_ZSt13__invoke_implIvZL28llama_tensor_dequantize_implP11ggml_tensorRSt6vectorI7no_initIfESaIS4_EERS2_ISt6threadSaIS8_EEmiE3$_0J9ggml_typePhPfmEET_St14__invoke_otherOT0_DpOT1_"(ptr noundef nonnull align 8 dereferenceable(8) %11, ptr noundef nonnull align 4 dereferenceable(4) %12, ptr noundef nonnull align 8 dereferenceable(8) %13, ptr noundef nonnull align 8 dereferenceable(8) %14, ptr noundef nonnull align 8 dereferenceable(8) %15)
  ret void
}

; Function Attrs: mustprogress nounwind uwtable
define internal noundef nonnull align 8 dereferenceable(8) ptr @"_ZSt3getILm4EJZL28llama_tensor_dequantize_implP11ggml_tensorRSt6vectorI7no_initIfESaIS4_EERS2_ISt6threadSaIS8_EEmiE3$_09ggml_typePhPfmEEONSt13tuple_elementIXT_ESt5tupleIJDpT0_EEE4typeEOSK_"(ptr noundef nonnull align 8 dereferenceable(40) %0) #0 {
  %2 = alloca ptr, align 8
  store ptr %0, ptr %2, align 8, !tbaa !617
  %3 = load ptr, ptr %2, align 8, !tbaa !617
  %4 = call noundef nonnull align 8 dereferenceable(8) ptr @_ZSt12__get_helperILm4EmJEERT0_RSt11_Tuple_implIXT_EJS0_DpT1_EE(ptr noundef nonnull align 8 dereferenceable(8) %3) #20
  ret ptr %4
}

; Function Attrs: mustprogress nounwind uwtable
define internal noundef nonnull align 8 dereferenceable(8) ptr @"_ZSt3getILm3EJZL28llama_tensor_dequantize_implP11ggml_tensorRSt6vectorI7no_initIfESaIS4_EERS2_ISt6threadSaIS8_EEmiE3$_09ggml_typePhPfmEEONSt13tuple_elementIXT_ESt5tupleIJDpT0_EEE4typeEOSK_"(ptr noundef nonnull align 8 dereferenceable(40) %0) #0 {
  %2 = alloca ptr, align 8
  store ptr %0, ptr %2, align 8, !tbaa !617
  %3 = load ptr, ptr %2, align 8, !tbaa !617
  %4 = call noundef nonnull align 8 dereferenceable(8) ptr @_ZSt12__get_helperILm3EPfJmEERT0_RSt11_Tuple_implIXT_EJS1_DpT1_EE(ptr noundef nonnull align 8 dereferenceable(16) %3) #20
  ret ptr %4
}

; Function Attrs: mustprogress nounwind uwtable
define internal noundef nonnull align 8 dereferenceable(8) ptr @"_ZSt3getILm2EJZL28llama_tensor_dequantize_implP11ggml_tensorRSt6vectorI7no_initIfESaIS4_EERS2_ISt6threadSaIS8_EEmiE3$_09ggml_typePhPfmEEONSt13tuple_elementIXT_ESt5tupleIJDpT0_EEE4typeEOSK_"(ptr noundef nonnull align 8 dereferenceable(40) %0) #0 {
  %2 = alloca ptr, align 8
  store ptr %0, ptr %2, align 8, !tbaa !617
  %3 = load ptr, ptr %2, align 8, !tbaa !617
  %4 = call noundef nonnull align 8 dereferenceable(8) ptr @_ZSt12__get_helperILm2EPhJPfmEERT0_RSt11_Tuple_implIXT_EJS2_DpT1_EE(ptr noundef nonnull align 8 dereferenceable(24) %3) #20
  ret ptr %4
}

; Function Attrs: mustprogress nounwind uwtable
define internal noundef nonnull align 4 dereferenceable(4) ptr @"_ZSt3getILm1EJZL28llama_tensor_dequantize_implP11ggml_tensorRSt6vectorI7no_initIfESaIS4_EERS2_ISt6threadSaIS8_EEmiE3$_09ggml_typePhPfmEEONSt13tuple_elementIXT_ESt5tupleIJDpT0_EEE4typeEOSK_"(ptr noundef nonnull align 8 dereferenceable(40) %0) #0 {
  %2 = alloca ptr, align 8
  store ptr %0, ptr %2, align 8, !tbaa !617
  %3 = load ptr, ptr %2, align 8, !tbaa !617
  %4 = call noundef nonnull align 4 dereferenceable(4) ptr @_ZSt12__get_helperILm1E9ggml_typeJPhPfmEERT0_RSt11_Tuple_implIXT_EJS3_DpT1_EE(ptr noundef nonnull align 8 dereferenceable(28) %3) #20
  ret ptr %4
}

; Function Attrs: mustprogress nounwind uwtable
define internal noundef nonnull align 8 dereferenceable(8) ptr @"_ZSt3getILm0EJZL28llama_tensor_dequantize_implP11ggml_tensorRSt6vectorI7no_initIfESaIS4_EERS2_ISt6threadSaIS8_EEmiE3$_09ggml_typePhPfmEEONSt13tuple_elementIXT_ESt5tupleIJDpT0_EEE4typeEOSK_"(ptr noundef nonnull align 8 dereferenceable(40) %0) #0 {
  %2 = alloca ptr, align 8
  store ptr %0, ptr %2, align 8, !tbaa !617
  %3 = load ptr, ptr %2, align 8, !tbaa !617
  %4 = call noundef nonnull align 8 dereferenceable(8) ptr @"_ZSt12__get_helperILm0EZL28llama_tensor_dequantize_implP11ggml_tensorRSt6vectorI7no_initIfESaIS4_EERS2_ISt6threadSaIS8_EEmiE3$_0J9ggml_typePhPfmEERT0_RSt11_Tuple_implIXT_EJSG_DpT1_EE"(ptr noundef nonnull align 8 dereferenceable(40) %3) #20
  ret ptr %4
}

; Function Attrs: mustprogress uwtable
define internal void @"_ZNSt6thread8_InvokerISt5tupleIJZL28llama_tensor_dequantize_implP11ggml_tensorRSt6vectorI7no_initIfESaIS6_EERS4_IS_SaIS_EEmiE3$_09ggml_typePhPfmEEE9_M_invokeIJLm0ELm1ELm2ELm3ELm4EEEEvSt12_Index_tupleIJXspT_EEE"(ptr noundef nonnull align 8 dereferenceable(40) %0) #2 align 2 {
  %2 = alloca ptr, align 8
  store ptr %0, ptr %2, align 8, !tbaa !615
  %3 = load ptr, ptr %2, align 8
  %4 = getelementptr inbounds nuw %"struct.std::thread::_Invoker", ptr %3, i32 0, i32 0
  %5 = call noundef nonnull align 8 dereferenceable(8) ptr @"_ZSt3getILm0EJZL28llama_tensor_dequantize_implP11ggml_tensorRSt6vectorI7no_initIfESaIS4_EERS2_ISt6threadSaIS8_EEmiE3$_09ggml_typePhPfmEEONSt13tuple_elementIXT_ESt5tupleIJDpT0_EEE4typeEOSK_"(ptr noundef nonnull align 8 dereferenceable(40) %4) #20
  %6 = getelementptr inbounds nuw %"struct.std::thread::_Invoker", ptr %3, i32 0, i32 0
  %7 = call noundef nonnull align 4 dereferenceable(4) ptr @"_ZSt3getILm1EJZL28llama_tensor_dequantize_implP11ggml_tensorRSt6vectorI7no_initIfESaIS4_EERS2_ISt6threadSaIS8_EEmiE3$_09ggml_typePhPfmEEONSt13tuple_elementIXT_ESt5tupleIJDpT0_EEE4typeEOSK_"(ptr noundef nonnull align 8 dereferenceable(40) %6) #20
  %8 = getelementptr inbounds nuw %"struct.std::thread::_Invoker", ptr %3, i32 0, i32 0
  %9 = call noundef nonnull align 8 dereferenceable(8) ptr @"_ZSt3getILm2EJZL28llama_tensor_dequantize_implP11ggml_tensorRSt6vectorI7no_initIfESaIS4_EERS2_ISt6threadSaIS8_EEmiE3$_09ggml_typePhPfmEEONSt13tuple_elementIXT_ESt5tupleIJDpT0_EEE4typeEOSK_"(ptr noundef nonnull align 8 dereferenceable(40) %8) #20
  %10 = getelementptr inbounds nuw %"struct.std::thread::_Invoker", ptr %3, i32 0, i32 0
  %11 = call noundef nonnull align 8 dereferenceable(8) ptr @"_ZSt3getILm3EJZL28llama_tensor_dequantize_implP11ggml_tensorRSt6vectorI7no_initIfESaIS4_EERS2_ISt6threadSaIS8_EEmiE3$_09ggml_typePhPfmEEONSt13tuple_elementIXT_ESt5tupleIJDpT0_EEE4typeEOSK_"(ptr noundef nonnull align 8 dereferenceable(40) %10) #20
  %12 = getelementptr inbounds nuw %"struct.std::thread::_Invoker", ptr %3, i32 0, i32 0
  %13 = call noundef nonnull align 8 dereferenceable(8) ptr @"_ZSt3getILm4EJZL28llama_tensor_dequantize_implP11ggml_tensorRSt6vectorI7no_initIfESaIS4_EERS2_ISt6threadSaIS8_EEmiE3$_09ggml_typePhPfmEEONSt13tuple_elementIXT_ESt5tupleIJDpT0_EEE4typeEOSK_"(ptr noundef nonnull align 8 dereferenceable(40) %12) #20
  call void @"_ZSt8__invokeIZL28llama_tensor_dequantize_implP11ggml_tensorRSt6vectorI7no_initIfESaIS4_EERS2_ISt6threadSaIS8_EEmiE3$_0J9ggml_typePhPfmEENSt15__invoke_resultIT_JDpT0_EE4typeEOSH_DpOSI_"(ptr noundef nonnull align 8 dereferenceable(8) %5, ptr noundef nonnull align 4 dereferenceable(4) %7, ptr noundef nonnull align 8 dereferenceable(8) %9, ptr noundef nonnull align 8 dereferenceable(8) %11, ptr noundef nonnull align 8 dereferenceable(8) %13)
  ret void
}

; Function Attrs: mustprogress uwtable
define internal void @"_ZNSt6thread8_InvokerISt5tupleIJZL28llama_tensor_dequantize_implP11ggml_tensorRSt6vectorI7no_initIfESaIS6_EERS4_IS_SaIS_EEmiE3$_09ggml_typePhPfmEEEclEv"(ptr noundef nonnull align 8 dereferenceable(40) %0) #2 align 2 {
  %2 = alloca ptr, align 8
  store ptr %0, ptr %2, align 8, !tbaa !615
  %3 = load ptr, ptr %2, align 8
  call void @"_ZNSt6thread8_InvokerISt5tupleIJZL28llama_tensor_dequantize_implP11ggml_tensorRSt6vectorI7no_initIfESaIS6_EERS4_IS_SaIS_EEmiE3$_09ggml_typePhPfmEEE9_M_invokeIJLm0ELm1ELm2ELm3ELm4EEEEvSt12_Index_tupleIJXspT_EEE"(ptr noundef nonnull align 8 dereferenceable(40) %3)
  ret void
}

; Function Attrs: mustprogress uwtable
define internal void @"_ZNSt6thread11_State_implINS_8_InvokerISt5tupleIJZL28llama_tensor_dequantize_implP11ggml_tensorRSt6vectorI7no_initIfESaIS7_EERS5_IS_SaIS_EEmiE3$_09ggml_typePhPfmEEEEE6_M_runEv"(ptr noundef nonnull align 8 dereferenceable(48) %0) unnamed_addr #2 align 2 {
  %2 = alloca ptr, align 8
  store ptr %0, ptr %2, align 8, !tbaa !607
  %3 = load ptr, ptr %2, align 8
  %4 = getelementptr inbounds nuw %"struct.std::thread::_State_impl", ptr %3, i32 0, i32 1
  call void @"_ZNSt6thread8_InvokerISt5tupleIJZL28llama_tensor_dequantize_implP11ggml_tensorRSt6vectorI7no_initIfESaIS6_EERS4_IS_SaIS_EEmiE3$_09ggml_typePhPfmEEEclEv"(ptr noundef nonnull align 8 dereferenceable(40) %4)
  ret void
}