; Function Attrs: mustprogress uwtable
define internal void @"_ZNSt6thread11_State_implINS_8_InvokerISt5tupleIJZL28llama_tensor_dequantize_implP11ggml_tensorRSt6vectorI7no_initIfESaIS7_EERS5_IS_SaIS_EEmiE3$_09ggml_typePhPfmEEEEE6_M_runEv"(ptr noundef nonnull readonly align 8 captures(none) dereferenceable(48) %0) unnamed_addr #2 align 2 {
  %2 = getelementptr inbounds nuw i8, ptr %0, i64 8
  %3 = getelementptr inbounds nuw i8, ptr %0, i64 32
  %4 = getelementptr inbounds nuw i8, ptr %0, i64 24
  %5 = getelementptr inbounds nuw i8, ptr %0, i64 16
  %.val1.i.i = load i32, ptr %3, align 8, !tbaa !274
  %.val2.i.i = load ptr, ptr %4, align 8, !tbaa !353
  %.val3.i.i = load ptr, ptr %5, align 8, !tbaa !43
  %.val4.i.i = load i64, ptr %2, align 8, !tbaa !9
  switch i32 %.val1.i.i, label %10 [
    i32 1, label %6
    i32 30, label %8
  ]

6:                                                ; preds = %1
  %sext9.i.i.i.i = shl i64 %.val4.i.i, 32
  %7 = ashr exact i64 %sext9.i.i.i.i, 32
  tail call void @ggml_fp16_to_fp32_row(ptr noundef %.val2.i.i, ptr noundef %.val3.i.i, i64 noundef %7)
  br label %"_ZNSt6thread8_InvokerISt5tupleIJZL28llama_tensor_dequantize_implP11ggml_tensorRSt6vectorI7no_initIfESaIS6_EERS4_IS_SaIS_EEmiE3$_09ggml_typePhPfmEEEclEv.exit"

8:                                                ; preds = %1
  %sext.i.i.i.i = shl i64 %.val4.i.i, 32
  %9 = ashr exact i64 %sext.i.i.i.i, 32
  tail call void @ggml_bf16_to_fp32_row(ptr noundef %.val2.i.i, ptr noundef %.val3.i.i, i64 noundef %9)
  br label %"_ZNSt6thread8_InvokerISt5tupleIJZL28llama_tensor_dequantize_implP11ggml_tensorRSt6vectorI7no_initIfESaIS6_EERS4_IS_SaIS_EEmiE3$_09ggml_typePhPfmEEEclEv.exit"

10:                                               ; preds = %1
  %11 = getelementptr inbounds nuw i8, ptr %0, i64 40
  %.val.i.i = load ptr, ptr %11, align 8
  %12 = getelementptr inbounds nuw i8, ptr %.val.i.i, i64 40
  %13 = load ptr, ptr %12, align 8, !tbaa !235
  %sext10.i.i.i.i = shl i64 %.val4.i.i, 32
  %14 = ashr exact i64 %sext10.i.i.i.i, 32
  tail call void %13(ptr noundef %.val2.i.i, ptr noundef %.val3.i.i, i64 noundef %14)
  br label %"_ZNSt6thread8_InvokerISt5tupleIJZL28llama_tensor_dequantize_implP11ggml_tensorRSt6vectorI7no_initIfESaIS6_EERS4_IS_SaIS_EEmiE3$_09ggml_typePhPfmEEEclEv.exit"

"_ZNSt6thread8_InvokerISt5tupleIJZL28llama_tensor_dequantize_implP11ggml_tensorRSt6vectorI7no_initIfESaIS6_EERS4_IS_SaIS_EEmiE3$_09ggml_typePhPfmEEEclEv.exit": ; preds = %6, %8, %10
  ret void
}